target datalayout = "e-m:e-p270:32:32-p271:32:32-p272:64:64-i64:64-i128:128-f80:128-n8:16:32:64-S128"
target triple = "x86_64-pc-linux-gnu"

%struct.xl_xact_prepare = type { i32, i32, i32, i32, i64, i32, i32, i32, i32, i32, i32, i32, i8, i16, i64, i64 }
%struct.FullTransactionId = type { i64 }
%struct.TransamVariablesData = type { i32, i32, %struct.FullTransactionId, i32, i32, i32, i32, i32, i32, i32, i32, %struct.FullTransactionId, i64, i32 }

@.str.2 = private unnamed_addr constant [11 x i8] c"twophase.c\00", align 1
@TransamVariables = external global ptr, align 8
@.str.54 = private unnamed_addr constant [55 x i8] c"removing stale two-phase state file for transaction %u\00", align 1
@__func__.ProcessTwoPhaseBuffer = private unnamed_addr constant [22 x i8] c"ProcessTwoPhaseBuffer\00", align 1
@.str.55 = private unnamed_addr constant [62 x i8] c"removing stale two-phase state from memory for transaction %u\00", align 1
@.str.56 = private unnamed_addr constant [56 x i8] c"removing future two-phase state file for transaction %u\00", align 1
@.str.57 = private unnamed_addr constant [63 x i8] c"removing future two-phase state from memory for transaction %u\00", align 1
@.str.58 = private unnamed_addr constant [50 x i8] c"corrupted two-phase state file for transaction %u\00", align 1
@.str.59 = private unnamed_addr constant [55 x i8] c"corrupted two-phase state in memory for transaction %u\00", align 1

; Function Attrs: nounwind uwtable
define internal ptr @ProcessTwoPhaseBuffer(i32 noundef %0, i64 noundef %1, i1 noundef zeroext %2, i1 noundef zeroext %3, i1 noundef zeroext %4) #0 {
  %6 = alloca ptr, align 8
  %7 = alloca i32, align 4
  %8 = alloca i64, align 8
  %9 = alloca i8, align 1
  %10 = alloca i8, align 1
  %11 = alloca i8, align 1
  %12 = alloca %struct.FullTransactionId, align 8
  %13 = alloca i32, align 4
  %14 = alloca ptr, align 8
  %15 = alloca ptr, align 8
  %16 = alloca ptr, align 8
  %17 = alloca i32, align 4
  %18 = alloca i32, align 4
  %19 = alloca i32, align 4
  store i32 %0, ptr %7, align 4
  store i64 %1, ptr %8, align 8
  %20 = zext i1 %2 to i8
  store i8 %20, ptr %9, align 1
  %21 = zext i1 %3 to i8
  store i8 %21, ptr %10, align 1
  %22 = zext i1 %4 to i8
  store i8 %22, ptr %11, align 1
  call void @llvm.lifetime.start.p0(i64 8, ptr %12) #12
  %23 = load ptr, ptr @TransamVariables, align 8
  %24 = getelementptr inbounds nuw %struct.TransamVariablesData, ptr %23, i32 0, i32 2
  call void @llvm.memcpy.p0.p0.i64(ptr align 8 %12, ptr align 8 %24, i64 8, i1 false)
  call void @llvm.lifetime.start.p0(i64 4, ptr %13) #12
  %25 = getelementptr inbounds nuw %struct.FullTransactionId, ptr %12, i32 0, i32 0
  %26 = load i64, ptr %25, align 8
  %27 = trunc i64 %26 to i32
  store i32 %27, ptr %13, align 4
  call void @llvm.lifetime.start.p0(i64 8, ptr %14) #12
  call void @llvm.lifetime.start.p0(i64 8, ptr %15) #12
  call void @llvm.lifetime.start.p0(i64 8, ptr %16) #12
  call void @llvm.lifetime.start.p0(i64 4, ptr %17) #12
  %28 = load i8, ptr %9, align 1, !range !4, !noundef !5
  %29 = trunc i8 %28 to i1
  br i1 %29, label %31, label %30

30:                                               ; preds = %5
  br label %31

31:                                               ; preds = %30, %5
  %32 = load i32, ptr %7, align 4
  %33 = call zeroext i1 @TransactionIdDidCommit(i32 noundef %32)
  br i1 %33, label %37, label %34

34:                                               ; preds = %31
  %35 = load i32, ptr %7, align 4
  %36 = call zeroext i1 @TransactionIdDidAbort(i32 noundef %35)
  br i1 %36, label %37, label %67

37:                                               ; preds = %34, %31
  %38 = load i8, ptr %9, align 1, !range !4, !noundef !5
  %39 = trunc i8 %38 to i1
  br i1 %39, label %40, label %53

40:                                               ; preds = %37
  br label %41

41:                                               ; preds = %40
  br i1 false, label %42, label %44

42:                                               ; preds = %41
  %43 = call zeroext i1 @errstart_cold(i32 noundef 19, ptr noundef null) #13
  br i1 %43, label %46, label %49

44:                                               ; preds = %41
  %45 = call zeroext i1 @errstart(i32 noundef 19, ptr noundef null)
  br i1 %45, label %46, label %49

46:                                               ; preds = %44, %42
  %47 = load i32, ptr %7, align 4
  %48 = call i32 (ptr, ...) @errmsg(ptr noundef @.str.54, i32 noundef %47)
  call void @errfinish(ptr noundef @.str.2, i32 noundef 2200, ptr noundef @__func__.ProcessTwoPhaseBuffer)
  br label %49

49:                                               ; preds = %46, %44, %42
  br label %50

50:                                               ; preds = %49
  br label %51

51:                                               ; preds = %50
  %52 = load i32, ptr %7, align 4
  call void @RemoveTwoPhaseFile(i32 noundef %52, i1 noundef zeroext true)
  br label %66

53:                                               ; preds = %37
  br label %54

54:                                               ; preds = %53
  br i1 false, label %55, label %57

55:                                               ; preds = %54
  %56 = call zeroext i1 @errstart_cold(i32 noundef 19, ptr noundef null) #13
  br i1 %56, label %59, label %62

57:                                               ; preds = %54
  %58 = call zeroext i1 @errstart(i32 noundef 19, ptr noundef null)
  br i1 %58, label %59, label %62

59:                                               ; preds = %57, %55
  %60 = load i32, ptr %7, align 4
  %61 = call i32 (ptr, ...) @errmsg(ptr noundef @.str.55, i32 noundef %60)
  call void @errfinish(ptr noundef @.str.2, i32 noundef 2207, ptr noundef @__func__.ProcessTwoPhaseBuffer)
  br label %62

62:                                               ; preds = %59, %57, %55
  br label %63

63:                                               ; preds = %62
  br label %64

64:                                               ; preds = %63
  %65 = load i32, ptr %7, align 4
  call void @PrepareRedoRemove(i32 noundef %65, i1 noundef zeroext true)
  br label %66

66:                                               ; preds = %64, %51
  store ptr null, ptr %6, align 8
  store i32 1, ptr %18, align 4
  br label %184

67:                                               ; preds = %34
  %68 = load i32, ptr %7, align 4
  %69 = load i32, ptr %13, align 4
  %70 = call zeroext i1 @TransactionIdFollowsOrEquals(i32 noundef %68, i32 noundef %69)
  br i1 %70, label %71, label %101

71:                                               ; preds = %67
  %72 = load i8, ptr %9, align 1, !range !4, !noundef !5
  %73 = trunc i8 %72 to i1
  br i1 %73, label %74, label %87

74:                                               ; preds = %71
  br label %75

75:                                               ; preds = %74
  br i1 false, label %76, label %78

76:                                               ; preds = %75
  %77 = call zeroext i1 @errstart_cold(i32 noundef 19, ptr noundef null) #13
  br i1 %77, label %80, label %83

78:                                               ; preds = %75
  %79 = call zeroext i1 @errstart(i32 noundef 19, ptr noundef null)
  br i1 %79, label %80, label %83

80:                                               ; preds = %78, %76
  %81 = load i32, ptr %7, align 4
  %82 = call i32 (ptr, ...) @errmsg(ptr noundef @.str.56, i32 noundef %81)
  call void @errfinish(ptr noundef @.str.2, i32 noundef 2220, ptr noundef @__func__.ProcessTwoPhaseBuffer)
  br label %83

83:                                               ; preds = %80, %78, %76
  br label %84

84:                                               ; preds = %83
  br label %85

85:                                               ; preds = %84
  %86 = load i32, ptr %7, align 4
  call void @RemoveTwoPhaseFile(i32 noundef %86, i1 noundef zeroext true)
  br label %100

87:                                               ; preds = %71
  br label %88

88:                                               ; preds = %87
  br i1 false, label %89, label %91

89:                                               ; preds = %88
  %90 = call zeroext i1 @errstart_cold(i32 noundef 19, ptr noundef null) #13
  br i1 %90, label %93, label %96

91:                                               ; preds = %88
  %92 = call zeroext i1 @errstart(i32 noundef 19, ptr noundef null)
  br i1 %92, label %93, label %96

93:                                               ; preds = %91, %89
  %94 = load i32, ptr %7, align 4
  %95 = call i32 (ptr, ...) @errmsg(ptr noundef @.str.57, i32 noundef %94)
  call void @errfinish(ptr noundef @.str.2, i32 noundef 2227, ptr noundef @__func__.ProcessTwoPhaseBuffer)
  br label %96

96:                                               ; preds = %93, %91, %89
  br label %97

97:                                               ; preds = %96
  br label %98

98:                                               ; preds = %97
  %99 = load i32, ptr %7, align 4
  call void @PrepareRedoRemove(i32 noundef %99, i1 noundef zeroext true)
  br label %100

100:                                              ; preds = %98, %85
  store ptr null, ptr %6, align 8
  store i32 1, ptr %18, align 4
  br label %184

101:                                              ; preds = %67
  %102 = load i8, ptr %9, align 1, !range !4, !noundef !5
  %103 = trunc i8 %102 to i1
  br i1 %103, label %104, label %107

104:                                              ; preds = %101
  %105 = load i32, ptr %7, align 4
  %106 = call ptr @ReadTwoPhaseFile(i32 noundef %105, i1 noundef zeroext false)
  store ptr %106, ptr %15, align 8
  br label %109

107:                                              ; preds = %101
  %108 = load i64, ptr %8, align 8
  call void @XlogReadTwoPhaseData(i64 noundef %108, ptr noundef %15, ptr noundef null)
  br label %109

109:                                              ; preds = %107, %104
  %110 = load ptr, ptr %15, align 8
  store ptr %110, ptr %16, align 8
  %111 = load ptr, ptr %16, align 8
  %112 = getelementptr inbounds nuw %struct.xl_xact_prepare, ptr %111, i32 0, i32 2
  %113 = load i32, ptr %112, align 8
  %114 = load i32, ptr %7, align 4
  %115 = icmp eq i32 %113, %114
  br i1 %115, label %146, label %116

116:                                              ; preds = %109
  %117 = load i8, ptr %9, align 1, !range !4, !noundef !5
  %118 = trunc i8 %117 to i1
  br i1 %118, label %119, label %132

119:                                              ; preds = %116
  br label %120

120:                                              ; preds = %119
  br i1 true, label %121, label %123

121:                                              ; preds = %120
  %122 = call zeroext i1 @errstart_cold(i32 noundef 21, ptr noundef null) #13
  br i1 %122, label %125, label %129

123:                                              ; preds = %120
  %124 = call zeroext i1 @errstart(i32 noundef 21, ptr noundef null)
  br i1 %124, label %125, label %129

125:                                              ; preds = %123, %121
  %126 = call i32 @errcode(i32 noundef 16779816)
  %127 = load i32, ptr %7, align 4
  %128 = call i32 (ptr, ...) @errmsg(ptr noundef @.str.58, i32 noundef %127)
  call void @errfinish(ptr noundef @.str.2, i32 noundef 2252, ptr noundef @__func__.ProcessTwoPhaseBuffer)
  br label %129

129:                                              ; preds = %125, %123, %121
  unreachable

130:                                              ; No predecessors!
  br label %131

131:                                              ; preds = %130
  br label %145

132:                                              ; preds = %116
  br label %133

133:                                              ; preds = %132
  br i1 true, label %134, label %136

134:                                              ; preds = %133
  %135 = call zeroext i1 @errstart_cold(i32 noundef 21, ptr noundef null) #13
  br i1 %135, label %138, label %142

136:                                              ; preds = %133
  %137 = call zeroext i1 @errstart(i32 noundef 21, ptr noundef null)
  br i1 %137, label %138, label %142

138:                                              ; preds = %136, %134
  %139 = call i32 @errcode(i32 noundef 16779816)
  %140 = load i32, ptr %7, align 4
  %141 = call i32 (ptr, ...) @errmsg(ptr noundef @.str.59, i32 noundef %140)
  call void @errfinish(ptr noundef @.str.2, i32 noundef 2257, ptr noundef @__func__.ProcessTwoPhaseBuffer)
  br label %142

142:                                              ; preds = %138, %136, %134
  unreachable

143:                                              ; No predecessors!
  br label %144

144:                                              ; preds = %143
  br label %145

145:                                              ; preds = %144, %131
  br label %146

146:                                              ; preds = %145, %109
  %147 = load ptr, ptr %15, align 8
  %148 = getelementptr inbounds nuw i8, ptr %147, i64 72
  %149 = load ptr, ptr %16, align 8
  %150 = getelementptr inbounds nuw %struct.xl_xact_prepare, ptr %149, i32 0, i32 13
  %151 = load i16, ptr %150, align 2
  %152 = zext i16 %151 to i64
  %153 = add i64 %152, 7
  %154 = and i64 %153, -8
  %155 = getelementptr inbounds nuw i8, ptr %148, i64 %154
  store ptr %155, ptr %14, align 8
  store i32 0, ptr %17, align 4
  br label %156

156:                                              ; preds = %179, %146
  %157 = load i32, ptr %17, align 4
  %158 = load ptr, ptr %16, align 8
  %159 = getelementptr inbounds nuw %struct.xl_xact_prepare, ptr %158, i32 0, i32 6
  %160 = load i32, ptr %159, align 4
  %161 = icmp slt i32 %157, %160
  br i1 %161, label %162, label %182

162:                                              ; preds = %156
  call void @llvm.lifetime.start.p0(i64 4, ptr %19) #12
  %163 = load ptr, ptr %14, align 8
  %164 = load i32, ptr %17, align 4
  %165 = sext i32 %164 to i64
  %166 = getelementptr inbounds i32, ptr %163, i64 %165
  %167 = load i32, ptr %166, align 4
  store i32 %167, ptr %19, align 4
  %168 = load i8, ptr %11, align 1, !range !4, !noundef !5
  %169 = trunc i8 %168 to i1
  br i1 %169, label %170, label %172

170:                                              ; preds = %162
  %171 = load i32, ptr %19, align 4
  call void @AdvanceNextFullTransactionIdPastXid(i32 noundef %171)
  br label %172

172:                                              ; preds = %170, %162
  %173 = load i8, ptr %10, align 1, !range !4, !noundef !5
  %174 = trunc i8 %173 to i1
  br i1 %174, label %175, label %178

175:                                              ; preds = %172
  %176 = load i32, ptr %19, align 4
  %177 = load i32, ptr %7, align 4
  call void @SubTransSetParent(i32 noundef %176, i32 noundef %177)
  br label %178

178:                                              ; preds = %175, %172
  call void @llvm.lifetime.end.p0(i64 4, ptr %19) #12
  br label %179

179:                                              ; preds = %178
  %180 = load i32, ptr %17, align 4
  %181 = add i32 %180, 1
  store i32 %181, ptr %17, align 4
  br label %156, !llvm.loop !20

182:                                              ; preds = %156
  %183 = load ptr, ptr %15, align 8
  store ptr %183, ptr %6, align 8
  store i32 1, ptr %18, align 4
  br label %184

184:                                              ; preds = %182, %100, %66
  call void @llvm.lifetime.end.p0(i64 4, ptr %17) #12
  call void @llvm.lifetime.end.p0(i64 8, ptr %16) #12
  call void @llvm.lifetime.end.p0(i64 8, ptr %15) #12
  call void @llvm.lifetime.end.p0(i64 8, ptr %14) #12
  call void @llvm.lifetime.end.p0(i64 4, ptr %13) #12
  call void @llvm.lifetime.end.p0(i64 8, ptr %12) #12
  %185 = load ptr, ptr %6, align 8
  ret ptr %185
}