; Function Attrs: nounwind uwtable
define internal fastcc ptr @ProcessTwoPhaseBuffer(i32 noundef %0, i64 noundef %1, i1 noundef zeroext %2, i1 noundef zeroext %3, i1 noundef zeroext %4) unnamed_addr #0 {
  %6 = alloca ptr, align 8
  %7 = load ptr, ptr @TransamVariables, align 8
  %8 = getelementptr inbounds nuw i8, ptr %7, i64 8
  %.sroa.0.0.copyload = load i64, ptr %8, align 8
  %9 = trunc i64 %.sroa.0.0.copyload to i32
  call void @llvm.lifetime.start.p0(i64 8, ptr nonnull %6) #14
  %10 = tail call zeroext i1 @TransactionIdDidCommit(i32 noundef %0) #14
  br i1 %10, label %13, label %11

11:                                               ; preds = %5
  %12 = tail call zeroext i1 @TransactionIdDidAbort(i32 noundef %0) #14
  br i1 %12, label %13, label %23

13:                                               ; preds = %11, %5
  %14 = tail call zeroext i1 @errstart(i32 noundef 19, ptr noundef null) #14
  br i1 %2, label %15, label %19

15:                                               ; preds = %13
  br i1 %14, label %16, label %18

16:                                               ; preds = %15
  %17 = tail call i32 (ptr, ...) @errmsg(ptr noundef nonnull @.str.54, i32 noundef %0) #14
  tail call void @errfinish(ptr noundef nonnull @.str.2, i32 noundef 2200, ptr noundef nonnull @__func__.ProcessTwoPhaseBuffer) #14
  br label %18

18:                                               ; preds = %16, %15
  tail call fastcc void @RemoveTwoPhaseFile(i32 noundef %0, i1 noundef zeroext true)
  br label %.loopexit

19:                                               ; preds = %13
  br i1 %14, label %20, label %22

20:                                               ; preds = %19
  %21 = tail call i32 (ptr, ...) @errmsg(ptr noundef nonnull @.str.55, i32 noundef %0) #14
  tail call void @errfinish(ptr noundef nonnull @.str.2, i32 noundef 2207, ptr noundef nonnull @__func__.ProcessTwoPhaseBuffer) #14
  br label %22

22:                                               ; preds = %20, %19
  tail call void @PrepareRedoRemove(i32 noundef %0, i1 noundef zeroext true)
  br label %.loopexit

23:                                               ; preds = %11
  %24 = tail call zeroext i1 @TransactionIdFollowsOrEquals(i32 noundef %0, i32 noundef %9) #14
  br i1 %24, label %25, label %35

25:                                               ; preds = %23
  %26 = tail call zeroext i1 @errstart(i32 noundef 19, ptr noundef null) #14
  br i1 %2, label %27, label %31

27:                                               ; preds = %25
  br i1 %26, label %28, label %30

28:                                               ; preds = %27
  %29 = tail call i32 (ptr, ...) @errmsg(ptr noundef nonnull @.str.56, i32 noundef %0) #14
  tail call void @errfinish(ptr noundef nonnull @.str.2, i32 noundef 2220, ptr noundef nonnull @__func__.ProcessTwoPhaseBuffer) #14
  br label %30

30:                                               ; preds = %28, %27
  tail call fastcc void @RemoveTwoPhaseFile(i32 noundef %0, i1 noundef zeroext true)
  br label %.loopexit

31:                                               ; preds = %25
  br i1 %26, label %32, label %34

32:                                               ; preds = %31
  %33 = tail call i32 (ptr, ...) @errmsg(ptr noundef nonnull @.str.57, i32 noundef %0) #14
  tail call void @errfinish(ptr noundef nonnull @.str.2, i32 noundef 2227, ptr noundef nonnull @__func__.ProcessTwoPhaseBuffer) #14
  br label %34

34:                                               ; preds = %32, %31
  tail call void @PrepareRedoRemove(i32 noundef %0, i1 noundef zeroext true)
  br label %.loopexit

35:                                               ; preds = %23
  br i1 %2, label %36, label %.thread

36:                                               ; preds = %35
  %37 = tail call fastcc ptr @ReadTwoPhaseFile(i32 noundef %0, i1 noundef zeroext false)
  %38 = getelementptr inbounds nuw i8, ptr %37, i64 8
  %39 = load i32, ptr %38, align 8
  %40 = icmp eq i32 %39, %0
  br i1 %40, label %52, label %45

.thread:                                          ; preds = %35
  call fastcc void @XlogReadTwoPhaseData(i64 noundef %1, ptr noundef %6, ptr noundef null)
  %41 = load ptr, ptr %6, align 8
  %42 = getelementptr inbounds nuw i8, ptr %41, i64 8
  %43 = load i32, ptr %42, align 8
  %44 = icmp eq i32 %43, %0
  br i1 %44, label %52, label %.thread36

45:                                               ; preds = %36
  %46 = tail call zeroext i1 @errstart_cold(i32 noundef 21, ptr noundef null) #15
  tail call void @llvm.assume(i1 %46)
  %47 = tail call i32 @errcode(i32 noundef 16779816) #14
  %48 = tail call i32 (ptr, ...) @errmsg(ptr noundef nonnull @.str.58, i32 noundef %0) #14
  tail call void @errfinish(ptr noundef nonnull @.str.2, i32 noundef 2252, ptr noundef nonnull @__func__.ProcessTwoPhaseBuffer) #14
  unreachable

.thread36:                                        ; preds = %.thread
  %49 = tail call zeroext i1 @errstart_cold(i32 noundef 21, ptr noundef null) #15
  tail call void @llvm.assume(i1 %49)
  %50 = tail call i32 @errcode(i32 noundef 16779816) #14
  %51 = tail call i32 (ptr, ...) @errmsg(ptr noundef nonnull @.str.59, i32 noundef %0) #14
  tail call void @errfinish(ptr noundef nonnull @.str.2, i32 noundef 2257, ptr noundef nonnull @__func__.ProcessTwoPhaseBuffer) #14
  unreachable

52:                                               ; preds = %.thread, %36
  %53 = phi ptr [ %41, %.thread ], [ %37, %36 ]
  %54 = getelementptr inbounds nuw i8, ptr %53, i64 72
  %55 = getelementptr inbounds nuw i8, ptr %53, i64 54
  %56 = load i16, ptr %55, align 2
  %57 = zext i16 %56 to i64
  %58 = add nuw nsw i64 %57, 7
  %59 = and i64 %58, 131064
  %60 = getelementptr inbounds nuw i8, ptr %54, i64 %59
  %61 = getelementptr inbounds nuw i8, ptr %53, i64 28
  %62 = load i32, ptr %61, align 4
  %63 = icmp sgt i32 %62, 0
  br i1 %63, label %.lr.ph, label %.loopexit

.lr.ph:                                           ; preds = %52
  br i1 %3, label %.lr.ph.split.us, label %.lr.ph.split

.lr.ph.split.us:                                  ; preds = %.lr.ph
  br i1 %4, label %.lr.ph.split.us.split.us, label %.lr.ph.split.us.split

.lr.ph.split.us.split.us:                         ; preds = %.lr.ph.split.us, %.lr.ph.split.us.split.us
  %indvars.iv46 = phi i64 [ %indvars.iv.next47, %.lr.ph.split.us.split.us ], [ 0, %.lr.ph.split.us ]
  %64 = getelementptr inbounds nuw i32, ptr %60, i64 %indvars.iv46
  %65 = load i32, ptr %64, align 4
  tail call void @AdvanceNextFullTransactionIdPastXid(i32 noundef %65) #14
  tail call void @SubTransSetParent(i32 noundef %65, i32 noundef %0) #14
  %indvars.iv.next47 = add nuw nsw i64 %indvars.iv46, 1
  %66 = load i32, ptr %61, align 4
  %67 = sext i32 %66 to i64
  %68 = icmp slt i64 %indvars.iv.next47, %67
  br i1 %68, label %.lr.ph.split.us.split.us, label %.loopexit, !llvm.loop !20

.lr.ph.split.us.split:                            ; preds = %.lr.ph.split.us, %.lr.ph.split.us.split
  %indvars.iv43 = phi i64 [ %indvars.iv.next44, %.lr.ph.split.us.split ], [ 0, %.lr.ph.split.us ]
  %69 = getelementptr inbounds nuw i32, ptr %60, i64 %indvars.iv43
  %70 = load i32, ptr %69, align 4
  tail call void @SubTransSetParent(i32 noundef %70, i32 noundef %0) #14
  %indvars.iv.next44 = add nuw nsw i64 %indvars.iv43, 1
  %71 = load i32, ptr %61, align 4
  %72 = sext i32 %71 to i64
  %73 = icmp slt i64 %indvars.iv.next44, %72
  br i1 %73, label %.lr.ph.split.us.split, label %.loopexit, !llvm.loop !20

.lr.ph.split:                                     ; preds = %.lr.ph
  br i1 %4, label %.lr.ph.split.split.us, label %.loopexit

.lr.ph.split.split.us:                            ; preds = %.lr.ph.split, %.lr.ph.split.split.us
  %indvars.iv = phi i64 [ %indvars.iv.next, %.lr.ph.split.split.us ], [ 0, %.lr.ph.split ]
  %74 = getelementptr inbounds nuw i32, ptr %60, i64 %indvars.iv
  %75 = load i32, ptr %74, align 4
  tail call void @AdvanceNextFullTransactionIdPastXid(i32 noundef %75) #14
  %indvars.iv.next = add nuw nsw i64 %indvars.iv, 1
  %76 = load i32, ptr %61, align 4
  %77 = sext i32 %76 to i64
  %78 = icmp slt i64 %indvars.iv.next, %77
  br i1 %78, label %.lr.ph.split.split.us, label %.loopexit, !llvm.loop !20

.loopexit:                                        ; preds = %.lr.ph.split.split.us, %.lr.ph.split.us.split, %.lr.ph.split.us.split.us, %.lr.ph.split, %52, %30, %34, %18, %22
  %.0 = phi ptr [ null, %22 ], [ null, %18 ], [ null, %34 ], [ null, %30 ], [ %53, %52 ], [ %53, %.lr.ph.split ], [ %53, %.lr.ph.split.us.split.us ], [ %53, %.lr.ph.split.us.split ], [ %53, %.lr.ph.split.split.us ]
  call void @llvm.lifetime.end.p0(i64 8, ptr nonnull %6) #14
  ret ptr %.0
}